target datalayout = "e-m:e-p270:32:32-p271:32:32-p272:64:64-i64:64-i128:128-f80:128-n8:16:32:64-S128"
target triple = "x86_64-pc-linux-gnu"

%struct.uv_loop_s = type { ptr, i32, %struct.uv__queue, %union.anon, ptr, i32, i64, i32, %struct.uv__queue, %struct.uv__queue, ptr, i32, i32, %struct.uv__queue, %union.pthread_mutex_t, %struct.uv_async_s, %union.pthread_rwlock_t, ptr, %struct.uv__queue, %struct.uv__queue, %struct.uv__queue, %struct.uv__queue, %struct.uv__queue, ptr, %struct.uv__io_s, i32, %struct.anon, i64, i64, [2 x i32], %struct.uv__io_s, %struct.uv_signal_s, i32, %struct.uv__io_s, ptr, i32 }
%union.anon = type { ptr }
%union.pthread_mutex_t = type { %struct.__pthread_mutex_s }
%struct.__pthread_mutex_s = type { i32, i32, i32, i32, i32, i16, i16, %struct.__pthread_internal_list }
%struct.__pthread_internal_list = type { ptr, ptr }
%struct.uv_async_s = type { ptr, ptr, i32, ptr, %struct.uv__queue, %union.anon.0, ptr, i32, ptr, %struct.uv__queue, i32 }
%union.anon.0 = type { [4 x ptr] }
%union.pthread_rwlock_t = type { %struct.__pthread_rwlock_arch_t }
%struct.__pthread_rwlock_arch_t = type { i32, i32, i32, i32, i32, i32, i32, i32, i8, [7 x i8], i64, i32 }
%struct.uv__queue = type { ptr, ptr }
%struct.anon = type { ptr, i32 }
%struct.uv_signal_s = type { ptr, ptr, i32, ptr, %struct.uv__queue, %union.anon.1, ptr, i32, ptr, i32, %struct.anon.2, i32, i32 }
%union.anon.1 = type { [4 x ptr] }
%struct.anon.2 = type { ptr, ptr, ptr, i32 }
%struct.uv__io_s = type { ptr, %struct.uv__queue, %struct.uv__queue, i32, i32, i32 }
%struct.uv_process_s = type { ptr, ptr, i32, ptr, %struct.uv__queue, %union.anon.3, ptr, i32, ptr, i32, %struct.uv__queue, i32 }
%union.anon.3 = type { [4 x ptr] }

; Function Attrs: inlinehint nounwind uwtable
define internal void @uv__queue_insert_tail(ptr noundef %0, ptr noundef %1) #3 {
  %3 = alloca ptr, align 8
  %4 = alloca ptr, align 8
  store ptr %0, ptr %3, align 8
  store ptr %1, ptr %4, align 8
  %5 = load ptr, ptr %3, align 8
  %6 = load ptr, ptr %4, align 8
  %7 = getelementptr inbounds nuw %struct.uv__queue, ptr %6, i32 0, i32 0
  store ptr %5, ptr %7, align 8
  %8 = load ptr, ptr %3, align 8
  %9 = getelementptr inbounds nuw %struct.uv__queue, ptr %8, i32 0, i32 1
  %10 = load ptr, ptr %9, align 8
  %11 = load ptr, ptr %4, align 8
  %12 = getelementptr inbounds nuw %struct.uv__queue, ptr %11, i32 0, i32 1
  store ptr %10, ptr %12, align 8
  %13 = load ptr, ptr %4, align 8
  %14 = load ptr, ptr %4, align 8
  %15 = getelementptr inbounds nuw %struct.uv__queue, ptr %14, i32 0, i32 1
  %16 = load ptr, ptr %15, align 8
  %17 = getelementptr inbounds nuw %struct.uv__queue, ptr %16, i32 0, i32 0
  store ptr %13, ptr %17, align 8
  %18 = load ptr, ptr %4, align 8
  %19 = load ptr, ptr %3, align 8
  %20 = getelementptr inbounds nuw %struct.uv__queue, ptr %19, i32 0, i32 1
  store ptr %18, ptr %20, align 8
  ret void
}

; Function Attrs: inlinehint nounwind uwtable
define internal void @uv__queue_remove(ptr noundef %0) #3 {
  %2 = alloca ptr, align 8
  store ptr %0, ptr %2, align 8
  %3 = load ptr, ptr %2, align 8
  %4 = getelementptr inbounds nuw %struct.uv__queue, ptr %3, i32 0, i32 0
  %5 = load ptr, ptr %4, align 8
  %6 = load ptr, ptr %2, align 8
  %7 = getelementptr inbounds nuw %struct.uv__queue, ptr %6, i32 0, i32 1
  %8 = load ptr, ptr %7, align 8
  %9 = getelementptr inbounds nuw %struct.uv__queue, ptr %8, i32 0, i32 0
  store ptr %5, ptr %9, align 8
  %10 = load ptr, ptr %2, align 8
  %11 = getelementptr inbounds nuw %struct.uv__queue, ptr %10, i32 0, i32 1
  %12 = load ptr, ptr %11, align 8
  %13 = load ptr, ptr %2, align 8
  %14 = getelementptr inbounds nuw %struct.uv__queue, ptr %13, i32 0, i32 0
  %15 = load ptr, ptr %14, align 8
  %16 = getelementptr inbounds nuw %struct.uv__queue, ptr %15, i32 0, i32 1
  store ptr %12, ptr %16, align 8
  ret void
}

; Function Attrs: inlinehint nounwind uwtable
define internal ptr @uv__queue_next(ptr noundef %0) #3 {
  %2 = alloca ptr, align 8
  store ptr %0, ptr %2, align 8
  %3 = load ptr, ptr %2, align 8
  %4 = getelementptr inbounds nuw %struct.uv__queue, ptr %3, i32 0, i32 0
  %5 = load ptr, ptr %4, align 8
  ret ptr %5
}

; Function Attrs: inlinehint nounwind uwtable
define internal ptr @uv__queue_head(ptr noundef %0) #3 {
  %2 = alloca ptr, align 8
  store ptr %0, ptr %2, align 8
  %3 = load ptr, ptr %2, align 8
  %4 = getelementptr inbounds nuw %struct.uv__queue, ptr %3, i32 0, i32 0
  %5 = load ptr, ptr %4, align 8
  ret ptr %5
}

; Function Attrs: inlinehint nounwind uwtable
define internal void @uv__queue_init(ptr noundef %0) #3 {
  %2 = alloca ptr, align 8
  store ptr %0, ptr %2, align 8
  %3 = load ptr, ptr %2, align 8
  %4 = load ptr, ptr %2, align 8
  %5 = getelementptr inbounds nuw %struct.uv__queue, ptr %4, i32 0, i32 0
  store ptr %3, ptr %5, align 8
  %6 = load ptr, ptr %2, align 8
  %7 = load ptr, ptr %2, align 8
  %8 = getelementptr inbounds nuw %struct.uv__queue, ptr %7, i32 0, i32 1
  store ptr %6, ptr %8, align 8
  ret void
}

; Function Attrs: nounwind uwtable
define hidden void @uv__wait_children(ptr noundef %0) #0 {
  %2 = alloca ptr, align 8
  %3 = alloca ptr, align 8
  %4 = alloca i32, align 4
  %5 = alloca i32, align 4
  %6 = alloca i32, align 4
  %7 = alloca i32, align 4
  %8 = alloca i32, align 4
  %9 = alloca %struct.uv__queue, align 8
  %10 = alloca ptr, align 8
  %11 = alloca ptr, align 8
  store ptr %0, ptr %2, align 8
  call void @llvm.lifetime.start.p0(i64 8, ptr %3) #9
  call void @llvm.lifetime.start.p0(i64 4, ptr %4) #9
  call void @llvm.lifetime.start.p0(i64 4, ptr %5) #9
  call void @llvm.lifetime.start.p0(i64 4, ptr %6) #9
  call void @llvm.lifetime.start.p0(i64 4, ptr %7) #9
  call void @llvm.lifetime.start.p0(i64 4, ptr %8) #9
  call void @llvm.lifetime.start.p0(i64 16, ptr %9) #9
  call void @llvm.lifetime.start.p0(i64 8, ptr %10) #9
  call void @llvm.lifetime.start.p0(i64 8, ptr %11) #9
  call void @uv__queue_init(ptr noundef %9)
  %12 = load ptr, ptr %2, align 8
  %13 = getelementptr inbounds nuw %struct.uv_loop_s, ptr %12, i32 0, i32 18
  store ptr %13, ptr %11, align 8
  %14 = load ptr, ptr %11, align 8
  %15 = call ptr @uv__queue_head(ptr noundef %14)
  store ptr %15, ptr %10, align 8
  br label %16

16:                                               ; preds = %53, %52, %43, %1
  %17 = load ptr, ptr %10, align 8
  %18 = load ptr, ptr %11, align 8
  %19 = icmp ne ptr %17, %18
  br i1 %19, label %20, label %61

20:                                               ; preds = %16
  %21 = load ptr, ptr %10, align 8
  %22 = getelementptr inbounds i8, ptr %21, i64 -112
  store ptr %22, ptr %3, align 8
  %23 = load ptr, ptr %10, align 8
  %24 = call ptr @uv__queue_next(ptr noundef %23)
  store ptr %24, ptr %10, align 8
  store i32 1, ptr %7, align 4
  br label %25

25:                                               ; preds = %38, %20
  %26 = load ptr, ptr %3, align 8
  %27 = getelementptr inbounds nuw %struct.uv_process_s, ptr %26, i32 0, i32 9
  %28 = load i32, ptr %27, align 8
  %29 = load i32, ptr %7, align 4
  %30 = call i32 @waitpid(i32 noundef %28, ptr noundef %6, i32 noundef %29)
  store i32 %30, ptr %8, align 4
  br label %31

31:                                               ; preds = %25
  %32 = load i32, ptr %8, align 4
  %33 = icmp eq i32 %32, -1
  br i1 %33, label %34, label %38

34:                                               ; preds = %31
  %35 = call ptr @__errno_location() #10
  %36 = load i32, ptr %35, align 4
  %37 = icmp eq i32 %36, 4
  br label %38

38:                                               ; preds = %34, %31
  %39 = phi i1 [ false, %31 ], [ %37, %34 ]
  br i1 %39, label %25, label %40

40:                                               ; preds = %38
  %41 = load i32, ptr %8, align 4
  %42 = icmp eq i32 %41, 0
  br i1 %42, label %43, label %44

43:                                               ; preds = %40
  br label %16

44:                                               ; preds = %40
  %45 = load i32, ptr %8, align 4
  %46 = icmp eq i32 %45, -1
  br i1 %46, label %47, label %53

47:                                               ; preds = %44
  %48 = call ptr @__errno_location() #10
  %49 = load i32, ptr %48, align 4
  %50 = icmp ne i32 %49, 10
  br i1 %50, label %51, label %52

51:                                               ; preds = %47
  call void @abort() #11
  unreachable

52:                                               ; preds = %47
  br label %16

53:                                               ; preds = %44
  %54 = load i32, ptr %6, align 4
  %55 = load ptr, ptr %3, align 8
  %56 = getelementptr inbounds nuw %struct.uv_process_s, ptr %55, i32 0, i32 11
  store i32 %54, ptr %56, align 8
  %57 = load ptr, ptr %3, align 8
  %58 = getelementptr inbounds nuw %struct.uv_process_s, ptr %57, i32 0, i32 10
  call void @uv__queue_remove(ptr noundef %58)
  %59 = load ptr, ptr %3, align 8
  %60 = getelementptr inbounds nuw %struct.uv_process_s, ptr %59, i32 0, i32 10
  call void @uv__queue_insert_tail(ptr noundef %9, ptr noundef %60)
  br label %16

61:                                               ; preds = %16
  store ptr %9, ptr %11, align 8
  %62 = load ptr, ptr %11, align 8
  %63 = call ptr @uv__queue_head(ptr noundef %62)
  store ptr %63, ptr %10, align 8
  br label %64

64:                                               ; preds = %139, %111, %61
  %65 = load ptr, ptr %10, align 8
  %66 = load ptr, ptr %11, align 8
  %67 = icmp ne ptr %65, %66
  br i1 %67, label %68, label %147

68:                                               ; preds = %64
  %69 = load ptr, ptr %10, align 8
  %70 = getelementptr inbounds i8, ptr %69, i64 -112
  store ptr %70, ptr %3, align 8
  %71 = load ptr, ptr %10, align 8
  %72 = call ptr @uv__queue_next(ptr noundef %71)
  store ptr %72, ptr %10, align 8
  %73 = load ptr, ptr %3, align 8
  %74 = getelementptr inbounds nuw %struct.uv_process_s, ptr %73, i32 0, i32 10
  call void @uv__queue_remove(ptr noundef %74)
  %75 = load ptr, ptr %3, align 8
  %76 = getelementptr inbounds nuw %struct.uv_process_s, ptr %75, i32 0, i32 10
  call void @uv__queue_init(ptr noundef %76)
  br label %77

77:                                               ; preds = %68
  %78 = load ptr, ptr %3, align 8
  %79 = getelementptr inbounds nuw %struct.uv_process_s, ptr %78, i32 0, i32 7
  %80 = load i32, ptr %79, align 8
  %81 = and i32 %80, 4
  %82 = icmp eq i32 %81, 0
  br i1 %82, label %83, label %84

83:                                               ; preds = %77
  br label %106

84:                                               ; preds = %77
  %85 = load ptr, ptr %3, align 8
  %86 = getelementptr inbounds nuw %struct.uv_process_s, ptr %85, i32 0, i32 7
  %87 = load i32, ptr %86, align 8
  %88 = and i32 %87, -5
  store i32 %88, ptr %86, align 8
  %89 = load ptr, ptr %3, align 8
  %90 = getelementptr inbounds nuw %struct.uv_process_s, ptr %89, i32 0, i32 7
  %91 = load i32, ptr %90, align 8
  %92 = and i32 %91, 8
  %93 = icmp ne i32 %92, 0
  br i1 %93, label %94, label %104

94:                                               ; preds = %84
  br label %95

95:                                               ; preds = %94
  %96 = load ptr, ptr %3, align 8
  %97 = getelementptr inbounds nuw %struct.uv_process_s, ptr %96, i32 0, i32 1
  %98 = load ptr, ptr %97, align 8
  %99 = getelementptr inbounds nuw %struct.uv_loop_s, ptr %98, i32 0, i32 1
  %100 = load i32, ptr %99, align 8
  %101 = add i32 %100, -1
  store i32 %101, ptr %99, align 8
  br label %102

102:                                              ; preds = %95
  br label %103

103:                                              ; preds = %102
  br label %104

104:                                              ; preds = %103, %84
  br label %105

105:                                              ; preds = %104
  br label %106

106:                                              ; preds = %105, %83
  %107 = load ptr, ptr %3, align 8
  %108 = getelementptr inbounds nuw %struct.uv_process_s, ptr %107, i32 0, i32 8
  %109 = load ptr, ptr %108, align 8
  %110 = icmp eq ptr %109, null
  br i1 %110, label %111, label %112

111:                                              ; preds = %106
  br label %64

112:                                              ; preds = %106
  store i32 0, ptr %4, align 4
  %113 = load ptr, ptr %3, align 8
  %114 = getelementptr inbounds nuw %struct.uv_process_s, ptr %113, i32 0, i32 11
  %115 = load i32, ptr %114, align 8
  %116 = and i32 %115, 127
  %117 = icmp eq i32 %116, 0
  br i1 %117, label %118, label %124

118:                                              ; preds = %112
  %119 = load ptr, ptr %3, align 8
  %120 = getelementptr inbounds nuw %struct.uv_process_s, ptr %119, i32 0, i32 11
  %121 = load i32, ptr %120, align 8
  %122 = and i32 %121, 65280
  %123 = ashr i32 %122, 8
  store i32 %123, ptr %4, align 4
  br label %124

124:                                              ; preds = %118, %112
  store i32 0, ptr %5, align 4
  %125 = load ptr, ptr %3, align 8
  %126 = getelementptr inbounds nuw %struct.uv_process_s, ptr %125, i32 0, i32 11
  %127 = load i32, ptr %126, align 8
  %128 = and i32 %127, 127
  %129 = add nsw i32 %128, 1
  %130 = trunc i32 %129 to i8
  %131 = sext i8 %130 to i32
  %132 = ashr i32 %131, 1
  %133 = icmp sgt i32 %132, 0
  br i1 %133, label %134, label %139

134:                                              ; preds = %124
  %135 = load ptr, ptr %3, align 8
  %136 = getelementptr inbounds nuw %struct.uv_process_s, ptr %135, i32 0, i32 11
  %137 = load i32, ptr %136, align 8
  %138 = and i32 %137, 127
  store i32 %138, ptr %5, align 4
  br label %139

139:                                              ; preds = %134, %124
  %140 = load ptr, ptr %3, align 8
  %141 = getelementptr inbounds nuw %struct.uv_process_s, ptr %140, i32 0, i32 8
  %142 = load ptr, ptr %141, align 8
  %143 = load ptr, ptr %3, align 8
  %144 = load i32, ptr %4, align 4
  %145 = sext i32 %144 to i64
  %146 = load i32, ptr %5, align 4
  call void %142(ptr noundef %143, i64 noundef %145, i32 noundef %146)
  br label %64

147:                                              ; preds = %64
  call void @llvm.lifetime.end.p0(i64 8, ptr %11) #9
  call void @llvm.lifetime.end.p0(i64 8, ptr %10) #9
  call void @llvm.lifetime.end.p0(i64 16, ptr %9) #9
  call void @llvm.lifetime.end.p0(i64 4, ptr %8) #9
  call void @llvm.lifetime.end.p0(i64 4, ptr %7) #9
  call void @llvm.lifetime.end.p0(i64 4, ptr %6) #9
  call void @llvm.lifetime.end.p0(i64 4, ptr %5) #9
  call void @llvm.lifetime.end.p0(i64 4, ptr %4) #9
  call void @llvm.lifetime.end.p0(i64 8, ptr %3) #9
  ret void
}